; Function Attrs: nofree norecurse nosync nounwind memory(argmem: readwrite) uwtable
define internal void @Int16_To_Int32(ptr noundef writeonly captures(none) %0, i32 noundef %1, ptr noundef readonly captures(none) %2, i32 noundef %3, i32 noundef %4, ptr readnone captures(none) %5) #2 {
  %.not10 = icmp eq i32 %4, 0
  br i1 %.not10, label %._crit_edge, label %.lr.ph

.lr.ph:                                           ; preds = %6
  %7 = sext i32 %3 to i64
  %8 = sext i32 %1 to i64
  br label %9

9:                                                ; preds = %.lr.ph, %9
  %.013 = phi ptr [ %0, %.lr.ph ], [ %15, %9 ]
  %.0812 = phi ptr [ %2, %.lr.ph ], [ %14, %9 ]
  %.0911 = phi i32 [ %4, %.lr.ph ], [ %10, %9 ]
  %10 = add i32 %.0911, -1
  %11 = load i16, ptr %.0812, align 2, !tbaa !81
  %12 = sext i16 %11 to i32
  %13 = shl nsw i32 %12, 16
  store i32 %13, ptr %.013, align 4, !tbaa !70
  %14 = getelementptr inbounds i16, ptr %.0812, i64 %7
  %15 = getelementptr inbounds i32, ptr %.013, i64 %8
  %.not = icmp eq i32 %10, 0
  br i1 %.not, label %._crit_edge, label %9, !llvm.loop !110

._crit_edge:                                      ; preds = %9, %6
  ret void
}